; Function Attrs: mustprogress uwtable
define noundef i64 @_ZNK7rocksdb17UInt64AddOperator13DecodeIntegerERKNS_5SliceEPNS_6LoggerE(ptr nocapture noundef nonnull readnone align 8 dereferenceable(32) %this, ptr nocapture noundef nonnull readonly align 8 dereferenceable(16) %value, ptr noundef %logger) local_unnamed_addr #0 align 2 {
entry:
  %size_.i = getelementptr inbounds i8, ptr %value, i64 8
  %0 = load i64, ptr %size_.i, align 8
  %cmp = icmp eq i64 %0, 8
  br i1 %cmp, label %if.then, label %if.else

if.then:                                          ; preds = %entry
  %1 = load ptr, ptr %value, align 8
  %result.0.copyload.i = load i64, ptr %1, align 1
  br label %if.end8

if.else:                                          ; preds = %entry
  %cmp4.not = icmp eq ptr %logger, null
  br i1 %cmp4.not, label %if.end8, label %if.then5

if.then5:                                         ; preds = %if.else
  tail call void (i8, ptr, ptr, ...) @_ZN7rocksdb3LogENS_12InfoLogLevelEPNS_6LoggerEPKcz(i8 noundef zeroext 3, ptr noundef nonnull %logger, ptr noundef nonnull @.str, ptr noundef nonnull getelementptr inbounds ([132 x i8], ptr @.str.1, i64 0, i64 93), i64 noundef %0, i64 noundef 8)
  br label %if.end8

if.end8:                                          ; preds = %if.else, %if.then5, %if.then
  %result.0 = phi i64 [ %result.0.copyload.i, %if.then ], [ 0, %if.then5 ], [ 0, %if.else ]
  ret i64 %result.0
}